; Function Attrs: mustprogress nounwind uwtable
define internal void @_ZN12_GLOBAL__N_121BtvRegularizationBodyIN2cv7Point3_IfEEED2Ev(ptr noundef nonnull align 8 dereferenceable(216) %0) unnamed_addr #5 align 2 {
  store ptr getelementptr inbounds inrange(-16, 24) (i8, ptr @_ZTVN12_GLOBAL__N_121BtvRegularizationBodyIN2cv7Point3_IfEEEE, i64 16), ptr %0, align 8
  %2 = getelementptr inbounds i8, ptr %0, i64 104
  tail call void @_ZN2cv3MatD1Ev(ptr noundef nonnull align 8 dereferenceable(96) %2) #29
  %3 = getelementptr inbounds i8, ptr %0, i64 8
  tail call void @_ZN2cv3MatD1Ev(ptr noundef nonnull align 8 dereferenceable(96) %3) #29
  tail call void @_ZN2cv16ParallelLoopBodyD2Ev(ptr noundef nonnull align 8 dereferenceable(8) %0) #29
  ret void
}